target datalayout = "e-m:e-p270:32:32-p271:32:32-p272:64:64-i64:64-i128:128-f80:128-n8:16:32:64-S128"
target triple = "x86_64-pc-linux-gnu"

%struct.hashmap = type { ptr, ptr, ptr, i32, i32, i32, i32, i8 }
%struct.repository = type { ptr, ptr, ptr, ptr, ptr, %struct.strmap, %struct.strmap, %struct.repo_path_cache, ptr, ptr, ptr, ptr, %struct.repo_settings, ptr, ptr, ptr, ptr, ptr, ptr, i32, i32, i32, ptr, ptr, i32, i32, i8 }
%struct.strmap = type { %struct.hashmap, ptr, i8 }
%struct.repo_path_cache = type { ptr, ptr, ptr, ptr, ptr, ptr, ptr }
%struct.repo_settings = type { i32, i32, i32, i32, i32, i32, i32, i32, i32, i32, i32, i32, ptr, i32, i32, i32, i32, i32, i32, i32, i64, i64, i64 }
%struct.git_config_source = type { i8, ptr, ptr, i32 }
%struct.config_options = type { i8, ptr, ptr, ptr, ptr, i32 }
%struct.object_id = type { [32 x i8], i32 }
%struct.raw_object_store = type { ptr, ptr, ptr, i32, ptr, ptr, i8, %union.pthread_mutex_t, ptr, i8, ptr, ptr, %struct.list_head, %struct.anon, %struct.hashmap, i64, i8 }
%union.pthread_mutex_t = type { %struct.__pthread_mutex_s }
%struct.__pthread_mutex_s = type { i32, i32, i32, i32, i32, i16, i16, %struct.__pthread_internal_list }
%struct.__pthread_internal_list = type { ptr, ptr }
%struct.list_head = type { ptr, ptr }
%struct.anon = type { ptr, i32 }
%struct.object_directory = type { ptr, [8 x i32], ptr, ptr, i32, i32, ptr }

@the_repository = external global ptr, align 8
@.str.2 = private unnamed_addr constant [12 x i8] c".gitmodules\00", align 1
@__const.config_from_gitmodules.config_source = private unnamed_addr constant { i8, [7 x i8], ptr, ptr, i32, [4 x i8] } { i8 0, [7 x i8] zeroinitializer, ptr null, ptr null, i32 6, [4 x i8] zeroinitializer }, align 8
@.str.17 = private unnamed_addr constant [13 x i8] c":.gitmodules\00", align 1
@.str.18 = private unnamed_addr constant [17 x i8] c"HEAD:.gitmodules\00", align 1

; Function Attrs: nounwind uwtable
define internal void @config_from_gitmodules(ptr noundef %0, ptr noundef %1, ptr noundef %2) #0 {
  %4 = alloca ptr, align 8
  %5 = alloca ptr, align 8
  %6 = alloca ptr, align 8
  %7 = alloca %struct.git_config_source, align 8
  %8 = alloca %struct.config_options, align 8
  %9 = alloca %struct.object_id, align 4
  %10 = alloca ptr, align 8
  %11 = alloca ptr, align 8
  store ptr %0, ptr %4, align 8, !tbaa !51
  store ptr %1, ptr %5, align 8, !tbaa !31
  store ptr %2, ptr %6, align 8, !tbaa !51
  %12 = load ptr, ptr %5, align 8, !tbaa !31
  %13 = getelementptr inbounds nuw %struct.repository, ptr %12, i32 0, i32 10
  %14 = load ptr, ptr %13, align 8, !tbaa !52
  %15 = icmp ne ptr %14, null
  br i1 %15, label %16, label %59

16:                                               ; preds = %3
  call void @llvm.lifetime.start.p0(i64 32, ptr %7) #9
  call void @llvm.memcpy.p0.p0.i64(ptr align 8 %7, ptr align 8 @__const.config_from_gitmodules.config_source, i64 32, i1 false)
  call void @llvm.lifetime.start.p0(i64 48, ptr %8) #9
  call void @llvm.memset.p0.i64(ptr align 8 %8, i8 0, i64 48, i1 false)
  call void @llvm.lifetime.start.p0(i64 36, ptr %9) #9
  call void @llvm.lifetime.start.p0(i64 8, ptr %10) #9
  call void @llvm.lifetime.start.p0(i64 8, ptr %11) #9
  store ptr null, ptr %11, align 8, !tbaa !13
  %17 = load ptr, ptr %5, align 8, !tbaa !31
  %18 = call ptr (ptr, ptr, ...) @repo_worktree_path(ptr noundef %17, ptr noundef @.str.2)
  store ptr %18, ptr %10, align 8, !tbaa !13
  %19 = load ptr, ptr %10, align 8, !tbaa !13
  %20 = call i32 @file_exists(ptr noundef %19)
  %21 = icmp ne i32 %20, 0
  br i1 %21, label %22, label %25

22:                                               ; preds = %16
  %23 = load ptr, ptr %10, align 8, !tbaa !13
  %24 = getelementptr inbounds nuw %struct.git_config_source, ptr %7, i32 0, i32 1
  store ptr %23, ptr %24, align 8, !tbaa !53
  br label %51

25:                                               ; preds = %16
  %26 = load ptr, ptr %5, align 8, !tbaa !31
  %27 = call i32 @repo_get_oid(ptr noundef %26, ptr noundef @.str.17, ptr noundef %9)
  %28 = icmp sge i32 %27, 0
  br i1 %28, label %33, label %29

29:                                               ; preds = %25
  %30 = load ptr, ptr %5, align 8, !tbaa !31
  %31 = call i32 @repo_get_oid(ptr noundef %30, ptr noundef @.str.18, ptr noundef %9)
  %32 = icmp sge i32 %31, 0
  br i1 %32, label %33, label %49

33:                                               ; preds = %29, %25
  %34 = call ptr @oid_to_hex(ptr noundef %9)
  %35 = call ptr @xstrdup(ptr noundef %34)
  store ptr %35, ptr %11, align 8, !tbaa !13
  %36 = getelementptr inbounds nuw %struct.git_config_source, ptr %7, i32 0, i32 2
  store ptr %35, ptr %36, align 8, !tbaa !55
  %37 = load ptr, ptr %5, align 8, !tbaa !31
  %38 = load ptr, ptr @the_repository, align 8, !tbaa !31
  %39 = icmp ne ptr %37, %38
  br i1 %39, label %40, label %48

40:                                               ; preds = %33
  %41 = load ptr, ptr %5, align 8, !tbaa !31
  %42 = getelementptr inbounds nuw %struct.repository, ptr %41, i32 0, i32 2
  %43 = load ptr, ptr %42, align 8, !tbaa !56
  %44 = getelementptr inbounds nuw %struct.raw_object_store, ptr %43, i32 0, i32 0
  %45 = load ptr, ptr %44, align 8, !tbaa !57
  %46 = getelementptr inbounds nuw %struct.object_directory, ptr %45, i32 0, i32 6
  %47 = load ptr, ptr %46, align 8, !tbaa !70
  call void @add_submodule_odb_by_path(ptr noundef %47)
  br label %48

48:                                               ; preds = %40, %33
  br label %50

49:                                               ; preds = %29
  br label %56

50:                                               ; preds = %48
  br label %51

51:                                               ; preds = %50, %22
  %52 = load ptr, ptr %4, align 8, !tbaa !51
  %53 = load ptr, ptr %6, align 8, !tbaa !51
  %54 = load ptr, ptr %5, align 8, !tbaa !31
  %55 = call i32 @config_with_options(ptr noundef %52, ptr noundef %53, ptr noundef %7, ptr noundef %54, ptr noundef %8)
  br label %56

56:                                               ; preds = %51, %49
  %57 = load ptr, ptr %11, align 8, !tbaa !13
  call void @free(ptr noundef %57) #9
  %58 = load ptr, ptr %10, align 8, !tbaa !13
  call void @free(ptr noundef %58) #9
  call void @llvm.lifetime.end.p0(i64 8, ptr %11) #9
  call void @llvm.lifetime.end.p0(i64 8, ptr %10) #9
  call void @llvm.lifetime.end.p0(i64 36, ptr %9) #9
  call void @llvm.lifetime.end.p0(i64 48, ptr %8) #9
  call void @llvm.lifetime.end.p0(i64 32, ptr %7) #9
  br label %59

59:                                               ; preds = %56, %3
  ret void
}