; Function Attrs: nounwind uwtable
define internal fastcc void @config_from_gitmodules(ptr noundef %0, ptr noundef %1, ptr noundef %2) unnamed_addr #0 {
  %4 = alloca %struct.git_config_source, align 8
  %5 = alloca %struct.config_options, align 8
  %6 = alloca %struct.object_id, align 4
  %7 = getelementptr inbounds nuw i8, ptr %1, i64 240
  %8 = load ptr, ptr %7, align 8, !tbaa !50
  %.not = icmp eq ptr %8, null
  br i1 %.not, label %34, label %9

9:                                                ; preds = %3
  call void @llvm.lifetime.start.p0(i64 32, ptr nonnull %4) #15
  call void @llvm.memcpy.p0.p0.i64(ptr noundef nonnull align 8 dereferenceable(32) %4, ptr noundef nonnull align 8 dereferenceable(32) @__const.config_from_gitmodules.config_source, i64 32, i1 false)
  call void @llvm.lifetime.start.p0(i64 48, ptr nonnull %5) #15
  call void @llvm.memset.p0.i64(ptr noundef nonnull align 8 dereferenceable(48) %5, i8 0, i64 48, i1 false)
  call void @llvm.lifetime.start.p0(i64 36, ptr nonnull %6) #15
  %10 = tail call ptr (ptr, ptr, ...) @repo_worktree_path(ptr noundef nonnull %1, ptr noundef nonnull @.str.2) #15
  %11 = tail call i32 @file_exists(ptr noundef %10) #15
  %.not14 = icmp eq i32 %11, 0
  br i1 %.not14, label %14, label %12

12:                                               ; preds = %9
  %13 = getelementptr inbounds nuw i8, ptr %4, i64 8
  store ptr %10, ptr %13, align 8, !tbaa !51
  br label %31

14:                                               ; preds = %9
  %15 = call i32 @repo_get_oid(ptr noundef nonnull %1, ptr noundef nonnull @.str.17, ptr noundef nonnull %6) #15
  %16 = icmp sgt i32 %15, -1
  br i1 %16, label %20, label %17

17:                                               ; preds = %14
  %18 = call i32 @repo_get_oid(ptr noundef nonnull %1, ptr noundef nonnull @.str.18, ptr noundef nonnull %6) #15
  %19 = icmp sgt i32 %18, -1
  br i1 %19, label %20, label %33

20:                                               ; preds = %17, %14
  %21 = call ptr @oid_to_hex(ptr noundef nonnull %6) #15
  %22 = call ptr @xstrdup(ptr noundef %21) #15
  %23 = getelementptr inbounds nuw i8, ptr %4, i64 16
  store ptr %22, ptr %23, align 8, !tbaa !53
  %24 = load ptr, ptr @the_repository, align 8, !tbaa !54
  %.not15 = icmp eq ptr %1, %24
  br i1 %.not15, label %31, label %25

25:                                               ; preds = %20
  %26 = getelementptr inbounds nuw i8, ptr %1, i64 16
  %27 = load ptr, ptr %26, align 8, !tbaa !56
  %28 = load ptr, ptr %27, align 8, !tbaa !57
  %29 = getelementptr inbounds nuw i8, ptr %28, i64 64
  %30 = load ptr, ptr %29, align 8, !tbaa !70
  call void @add_submodule_odb_by_path(ptr noundef %30) #15
  br label %31

31:                                               ; preds = %25, %20, %12
  %.0 = phi ptr [ null, %12 ], [ %22, %25 ], [ %22, %20 ]
  %32 = call i32 @config_with_options(ptr noundef %0, ptr noundef %2, ptr noundef nonnull %4, ptr noundef nonnull %1, ptr noundef nonnull %5) #15
  br label %33

33:                                               ; preds = %17, %31
  %.1 = phi ptr [ %.0, %31 ], [ null, %17 ]
  call void @free(ptr noundef %.1) #15
  call void @free(ptr noundef %10) #15
  call void @llvm.lifetime.end.p0(i64 36, ptr nonnull %6) #15
  call void @llvm.lifetime.end.p0(i64 48, ptr nonnull %5) #15
  call void @llvm.lifetime.end.p0(i64 32, ptr nonnull %4) #15
  br label %34

34:                                               ; preds = %33, %3
  ret void
}